target datalayout = "e-m:e-p270:32:32-p271:32:32-p272:64:64-i64:64-i128:128-f80:128-n8:16:32:64-S128"
target triple = "x86_64-pc-linux-gnu"

@.str.94 = private unnamed_addr constant [2 x i8] c"=\00", align 1

; Function Attrs: nounwind uwtable
define dso_local void @ParseLongOption(ptr noundef %0, ptr noundef %1, ptr noundef %2) #0 {
  %4 = alloca ptr, align 8
  %5 = alloca ptr, align 8
  %6 = alloca ptr, align 8
  %7 = alloca i64, align 8
  %8 = alloca ptr, align 8
  store ptr %0, ptr %4, align 8
  store ptr %1, ptr %5, align 8
  store ptr %2, ptr %6, align 8
  call void @llvm.lifetime.start.p0(i64 8, ptr %7) #16
  call void @llvm.lifetime.start.p0(i64 8, ptr %8) #16
  %9 = load ptr, ptr %4, align 8
  %10 = call i64 @strcspn(ptr noundef %9, ptr noundef @.str.94) #17
  store i64 %10, ptr %7, align 8
  %11 = load ptr, ptr %4, align 8
  %12 = load i64, ptr %7, align 8
  %13 = getelementptr inbounds nuw i8, ptr %11, i64 %12
  %14 = load i8, ptr %13, align 1
  %15 = sext i8 %14 to i32
  %16 = icmp eq i32 %15, 61
  br i1 %16, label %17, label %34

17:                                               ; preds = %3
  %18 = load i64, ptr %7, align 8
  %19 = add i64 %18, 1
  %20 = call ptr @palloc(i64 noundef %19)
  %21 = load ptr, ptr %5, align 8
  store ptr %20, ptr %21, align 8
  %22 = load ptr, ptr %5, align 8
  %23 = load ptr, ptr %22, align 8
  %24 = load ptr, ptr %4, align 8
  %25 = load i64, ptr %7, align 8
  %26 = add i64 %25, 1
  %27 = call i64 @strlcpy(ptr noundef %23, ptr noundef %24, i64 noundef %26)
  %28 = load ptr, ptr %4, align 8
  %29 = load i64, ptr %7, align 8
  %30 = add i64 %29, 1
  %31 = getelementptr inbounds nuw i8, ptr %28, i64 %30
  %32 = call ptr @pstrdup(ptr noundef %31)
  %33 = load ptr, ptr %6, align 8
  store ptr %32, ptr %33, align 8
  br label %39

34:                                               ; preds = %3
  %35 = load ptr, ptr %4, align 8
  %36 = call ptr @pstrdup(ptr noundef %35)
  %37 = load ptr, ptr %5, align 8
  store ptr %36, ptr %37, align 8
  %38 = load ptr, ptr %6, align 8
  store ptr null, ptr %38, align 8
  br label %39

39:                                               ; preds = %34, %17
  %40 = load ptr, ptr %5, align 8
  %41 = load ptr, ptr %40, align 8
  store ptr %41, ptr %8, align 8
  br label %42

42:                                               ; preds = %54, %39
  %43 = load ptr, ptr %8, align 8
  %44 = load i8, ptr %43, align 1
  %45 = icmp ne i8 %44, 0
  br i1 %45, label %46, label %57

46:                                               ; preds = %42
  %47 = load ptr, ptr %8, align 8
  %48 = load i8, ptr %47, align 1
  %49 = sext i8 %48 to i32
  %50 = icmp eq i32 %49, 45
  br i1 %50, label %51, label %53

51:                                               ; preds = %46
  %52 = load ptr, ptr %8, align 8
  store i8 95, ptr %52, align 1
  br label %53

53:                                               ; preds = %51, %46
  br label %54

54:                                               ; preds = %53
  %55 = load ptr, ptr %8, align 8
  %56 = getelementptr inbounds nuw i8, ptr %55, i32 1
  store ptr %56, ptr %8, align 8
  br label %42, !llvm.loop !64

57:                                               ; preds = %42
  call void @llvm.lifetime.end.p0(i64 8, ptr %8) #16
  call void @llvm.lifetime.end.p0(i64 8, ptr %7) #16
  ret void
}