; Function Attrs: nounwind uwtable
define dso_local void @ParseLongOption(ptr noundef %0, ptr noundef captures(none) initializes((0, 8)) %1, ptr noundef writeonly captures(none) initializes((0, 8)) %2) local_unnamed_addr #0 {
  %4 = tail call i64 @strcspn(ptr noundef %0, ptr noundef nonnull @.str.94) #30
  %5 = getelementptr inbounds nuw i8, ptr %0, i64 %4
  %6 = load i8, ptr %5, align 1
  %7 = icmp eq i8 %6, 61
  br i1 %7, label %8, label %14

8:                                                ; preds = %3
  %9 = add i64 %4, 1
  %10 = tail call ptr @palloc(i64 noundef %9) #29
  store ptr %10, ptr %1, align 8
  %11 = tail call i64 @strlcpy(ptr noundef %10, ptr noundef nonnull dereferenceable(1) %0, i64 noundef %9) #29
  %12 = getelementptr inbounds nuw i8, ptr %0, i64 %9
  %13 = tail call ptr @pstrdup(ptr noundef nonnull %12) #29
  br label %16

14:                                               ; preds = %3
  %15 = tail call ptr @pstrdup(ptr noundef nonnull %0) #29
  store ptr %15, ptr %1, align 8
  br label %16

16:                                               ; preds = %14, %8
  %storemerge = phi ptr [ null, %14 ], [ %13, %8 ]
  store ptr %storemerge, ptr %2, align 8
  %17 = load ptr, ptr %1, align 8
  br label %18

18:                                               ; preds = %21, %16
  %.0 = phi ptr [ %17, %16 ], [ %22, %21 ]
  %19 = load i8, ptr %.0, align 1
  switch i8 %19, label %21 [
    i8 0, label %23
    i8 45, label %20
  ]

20:                                               ; preds = %18
  store i8 95, ptr %.0, align 1
  br label %21

21:                                               ; preds = %18, %20
  %22 = getelementptr inbounds nuw i8, ptr %.0, i64 1
  br label %18, !llvm.loop !60

23:                                               ; preds = %18
  ret void
}